; Function Attrs: mustprogress nofree norecurse nosync nounwind willreturn memory(read, inaccessiblemem: none) uwtable
define noundef zeroext i1 @_Z12dd_dlb_is_onPK12gmx_domdec_t(ptr noundef readonly captures(none) %0) local_unnamed_addr #0 {
  %2 = getelementptr inbounds nuw i8, ptr %0, i64 320
  %3 = load ptr, ptr %2, align 8
  %4 = getelementptr inbounds nuw i8, ptr %3, i64 368
  %.val = load i32, ptr %4, align 4
  %5 = and i32 %.val, -2
  %spec.select.i = icmp eq i32 %5, 4
  ret i1 %spec.select.i
}